target datalayout = "e-m:e-p270:32:32-p271:32:32-p272:64:64-i64:64-i128:128-f80:128-n8:16:32:64-S128"
target triple = "x86_64-pc-linux-gnu"

@.str.26 = private unnamed_addr constant [7 x i8] c"sha256\00", align 1

; Function Attrs: nounwind uwtable
define i32 @cli_versig2(ptr noundef %0, ptr noundef %1, ptr noundef %2, ptr noundef %3) #0 {
  %5 = alloca i32, align 4
  %6 = alloca ptr, align 8
  %7 = alloca ptr, align 8
  %8 = alloca ptr, align 8
  %9 = alloca ptr, align 8
  %10 = alloca ptr, align 8
  %11 = alloca [32 x i8], align 16
  %12 = alloca [32 x i8], align 16
  %13 = alloca [32 x i8], align 16
  %14 = alloca ptr, align 8
  %15 = alloca [223 x i8], align 16
  %16 = alloca [223 x i8], align 16
  %17 = alloca [72 x i8], align 16
  %18 = alloca [4 x i8], align 1
  %19 = alloca i32, align 4
  %20 = alloca i32, align 4
  %21 = alloca ptr, align 8
  %22 = alloca ptr, align 8
  %23 = alloca ptr, align 8
  %24 = alloca i32, align 4
  store ptr %0, ptr %6, align 8
  store ptr %1, ptr %7, align 8
  store ptr %2, ptr %8, align 8
  store ptr %3, ptr %9, align 8
  store ptr null, ptr %10, align 8
  %25 = call ptr @BN_new()
  store ptr %25, ptr %22, align 8
  %26 = call ptr @BN_new()
  store ptr %26, ptr %23, align 8
  %27 = load ptr, ptr %22, align 8
  %28 = icmp ne ptr %27, null
  br i1 %28, label %29, label %32

29:                                               ; preds = %4
  %30 = load ptr, ptr %23, align 8
  %31 = icmp ne ptr %30, null
  br i1 %31, label %33, label %32

32:                                               ; preds = %29, %4
  store i32 20, ptr %24, align 4
  br label %182

33:                                               ; preds = %29
  store i32 6, ptr %24, align 4
  %34 = load ptr, ptr %9, align 8
  %35 = call i32 @BN_dec2bn(ptr noundef %23, ptr noundef %34)
  %36 = icmp ne i32 %35, 0
  br i1 %36, label %38, label %37

37:                                               ; preds = %33
  br label %182

38:                                               ; preds = %33
  %39 = load ptr, ptr %8, align 8
  %40 = call i32 @BN_dec2bn(ptr noundef %22, ptr noundef %39)
  %41 = icmp ne i32 %40, 0
  br i1 %41, label %43, label %42

42:                                               ; preds = %38
  br label %182

43:                                               ; preds = %38
  %44 = load ptr, ptr %7, align 8
  %45 = load ptr, ptr %23, align 8
  %46 = load ptr, ptr %22, align 8
  %47 = call ptr @cli_decodesig(ptr noundef %44, i32 noundef 256, ptr noundef %45, ptr noundef %46)
  store ptr %47, ptr %10, align 8
  %48 = load ptr, ptr %10, align 8
  %49 = icmp ne ptr %48, null
  br i1 %49, label %51, label %50

50:                                               ; preds = %43
  store i32 6, ptr %24, align 4
  br label %182

51:                                               ; preds = %43
  %52 = load ptr, ptr %10, align 8
  %53 = getelementptr inbounds i8, ptr %52, i64 255
  %54 = load i8, ptr %53, align 1
  %55 = zext i8 %54 to i32
  %56 = icmp ne i32 %55, 188
  br i1 %56, label %57, label %58

57:                                               ; preds = %51
  store i32 6, ptr %24, align 4
  br label %182

58:                                               ; preds = %51
  %59 = load ptr, ptr %22, align 8
  call void @BN_free(ptr noundef %59)
  %60 = load ptr, ptr %23, align 8
  call void @BN_free(ptr noundef %60)
  store ptr null, ptr %22, align 8
  store ptr null, ptr %23, align 8
  %61 = getelementptr inbounds [223 x i8], ptr %15, i64 0, i64 0
  %62 = load ptr, ptr %10, align 8
  call void @llvm.memcpy.p0.p0.i64(ptr align 16 %61, ptr align 1 %62, i64 223, i1 false)
  %63 = getelementptr inbounds [32 x i8], ptr %12, i64 0, i64 0
  %64 = load ptr, ptr %10, align 8
  %65 = getelementptr inbounds i8, ptr %64, i64 223
  call void @llvm.memcpy.p0.p0.i64(ptr align 16 %63, ptr align 1 %65, i64 32, i1 false)
  %66 = load ptr, ptr %10, align 8
  call void @free(ptr noundef %66) #8
  store ptr null, ptr %10, align 8
  %67 = getelementptr inbounds [4 x i8], ptr %18, i64 0, i64 1
  store i8 0, ptr %67, align 1
  %68 = getelementptr inbounds [4 x i8], ptr %18, i64 0, i64 0
  store i8 0, ptr %68, align 1
  store i32 7, ptr %20, align 4
  store i32 0, ptr %19, align 4
  br label %69

69:                                               ; preds = %116, %58
  %70 = load i32, ptr %19, align 4
  %71 = load i32, ptr %20, align 4
  %72 = icmp ult i32 %70, %71
  br i1 %72, label %73, label %119

73:                                               ; preds = %69
  %74 = load i32, ptr %19, align 4
  %75 = udiv i32 %74, 256
  %76 = trunc i32 %75 to i8
  %77 = getelementptr inbounds [4 x i8], ptr %18, i64 0, i64 2
  store i8 %76, ptr %77, align 1
  %78 = load i32, ptr %19, align 4
  %79 = trunc i32 %78 to i8
  %80 = getelementptr inbounds [4 x i8], ptr %18, i64 0, i64 3
  store i8 %79, ptr %80, align 1
  %81 = call ptr @cl_hash_init(ptr noundef @.str.26)
  store ptr %81, ptr %21, align 8
  %82 = load ptr, ptr %21, align 8
  %83 = icmp ne ptr %82, null
  br i1 %83, label %85, label %84

84:                                               ; preds = %73
  store i32 20, ptr %5, align 4
  br label %187

85:                                               ; preds = %73
  %86 = load ptr, ptr %21, align 8
  %87 = getelementptr inbounds [32 x i8], ptr %12, i64 0, i64 0
  %88 = call i32 @cl_update_hash(ptr noundef %86, ptr noundef %87, i64 noundef 32)
  %89 = load ptr, ptr %21, align 8
  %90 = getelementptr inbounds [4 x i8], ptr %18, i64 0, i64 0
  %91 = call i32 @cl_update_hash(ptr noundef %89, ptr noundef %90, i64 noundef 4)
  %92 = load ptr, ptr %21, align 8
  %93 = getelementptr inbounds [32 x i8], ptr %13, i64 0, i64 0
  %94 = call i32 @cl_finish_hash(ptr noundef %92, ptr noundef %93)
  %95 = load i32, ptr %19, align 4
  %96 = add i32 %95, 1
  %97 = load i32, ptr %20, align 4
  %98 = icmp eq i32 %96, %97
  br i1 %98, label %99, label %109

99:                                               ; preds = %85
  %100 = load i32, ptr %19, align 4
  %101 = mul i32 %100, 32
  %102 = zext i32 %101 to i64
  %103 = getelementptr inbounds [223 x i8], ptr %16, i64 0, i64 %102
  %104 = getelementptr inbounds [32 x i8], ptr %13, i64 0, i64 0
  %105 = load i32, ptr %19, align 4
  %106 = mul i32 %105, 32
  %107 = sub i32 223, %106
  %108 = zext i32 %107 to i64
  call void @llvm.memcpy.p0.p0.i64(ptr align 1 %103, ptr align 16 %104, i64 %108, i1 false)
  br label %115

109:                                              ; preds = %85
  %110 = load i32, ptr %19, align 4
  %111 = mul i32 %110, 32
  %112 = zext i32 %111 to i64
  %113 = getelementptr inbounds [223 x i8], ptr %16, i64 0, i64 %112
  %114 = getelementptr inbounds [32 x i8], ptr %13, i64 0, i64 0
  call void @llvm.memcpy.p0.p0.i64(ptr align 1 %113, ptr align 16 %114, i64 32, i1 false)
  br label %115

115:                                              ; preds = %109, %99
  br label %116

116:                                              ; preds = %115
  %117 = load i32, ptr %19, align 4
  %118 = add i32 %117, 1
  store i32 %118, ptr %19, align 4
  br label %69

119:                                              ; preds = %69
  store i32 0, ptr %19, align 4
  br label %120

120:                                              ; preds = %136, %119
  %121 = load i32, ptr %19, align 4
  %122 = icmp ult i32 %121, 223
  br i1 %122, label %123, label %139

123:                                              ; preds = %120
  %124 = load i32, ptr %19, align 4
  %125 = zext i32 %124 to i64
  %126 = getelementptr inbounds [223 x i8], ptr %15, i64 0, i64 %125
  %127 = load i8, ptr %126, align 1
  %128 = zext i8 %127 to i32
  %129 = load i32, ptr %19, align 4
  %130 = zext i32 %129 to i64
  %131 = getelementptr inbounds [223 x i8], ptr %16, i64 0, i64 %130
  %132 = load i8, ptr %131, align 1
  %133 = zext i8 %132 to i32
  %134 = xor i32 %133, %128
  %135 = trunc i32 %134 to i8
  store i8 %135, ptr %131, align 1
  br label %136

136:                                              ; preds = %123
  %137 = load i32, ptr %19, align 4
  %138 = add i32 %137, 1
  store i32 %138, ptr %19, align 4
  br label %120

139:                                              ; preds = %120
  %140 = getelementptr inbounds [223 x i8], ptr %16, i64 0, i64 0
  %141 = load i8, ptr %140, align 16
  %142 = zext i8 %141 to i32
  %143 = and i32 %142, 127
  %144 = trunc i32 %143 to i8
  store i8 %144, ptr %140, align 16
  %145 = getelementptr inbounds [223 x i8], ptr %16, i64 0, i64 0
  %146 = call ptr @memchr(ptr noundef %145, i32 noundef 1, i64 noundef 223) #10
  store ptr %146, ptr %14, align 8
  %147 = icmp ne ptr %146, null
  br i1 %147, label %149, label %148

148:                                              ; preds = %139
  store i32 6, ptr %5, align 4
  br label %187

149:                                              ; preds = %139
  %150 = load ptr, ptr %14, align 8
  %151 = getelementptr inbounds i8, ptr %150, i32 1
  store ptr %151, ptr %14, align 8
  %152 = getelementptr inbounds [223 x i8], ptr %16, i64 0, i64 0
  %153 = getelementptr inbounds i8, ptr %152, i64 223
  %154 = load ptr, ptr %14, align 8
  %155 = ptrtoint ptr %153 to i64
  %156 = ptrtoint ptr %154 to i64
  %157 = sub i64 %155, %156
  %158 = icmp ne i64 %157, 32
  br i1 %158, label %159, label %160

159:                                              ; preds = %149
  store i32 6, ptr %5, align 4
  br label %187

160:                                              ; preds = %149
  %161 = getelementptr inbounds [72 x i8], ptr %17, i64 0, i64 0
  call void @llvm.memset.p0.i64(ptr align 16 %161, i8 0, i64 8, i1 false)
  %162 = getelementptr inbounds [72 x i8], ptr %17, i64 0, i64 8
  %163 = load ptr, ptr %6, align 8
  call void @llvm.memcpy.p0.p0.i64(ptr align 8 %162, ptr align 1 %163, i64 32, i1 false)
  %164 = getelementptr inbounds [72 x i8], ptr %17, i64 0, i64 40
  %165 = load ptr, ptr %14, align 8
  call void @llvm.memcpy.p0.p0.i64(ptr align 8 %164, ptr align 1 %165, i64 32, i1 false)
  %166 = call ptr @cl_hash_init(ptr noundef @.str.26)
  store ptr %166, ptr %21, align 8
  %167 = load ptr, ptr %21, align 8
  %168 = icmp ne ptr %167, null
  br i1 %168, label %170, label %169

169:                                              ; preds = %160
  store i32 20, ptr %5, align 4
  br label %187

170:                                              ; preds = %160
  %171 = load ptr, ptr %21, align 8
  %172 = getelementptr inbounds [72 x i8], ptr %17, i64 0, i64 0
  %173 = call i32 @cl_update_hash(ptr noundef %171, ptr noundef %172, i64 noundef 72)
  %174 = load ptr, ptr %21, align 8
  %175 = getelementptr inbounds [32 x i8], ptr %11, i64 0, i64 0
  %176 = call i32 @cl_finish_hash(ptr noundef %174, ptr noundef %175)
  %177 = getelementptr inbounds [32 x i8], ptr %11, i64 0, i64 0
  %178 = getelementptr inbounds [32 x i8], ptr %12, i64 0, i64 0
  %179 = call i32 @memcmp(ptr noundef %177, ptr noundef %178, i64 noundef 32) #10
  %180 = icmp ne i32 %179, 0
  %181 = select i1 %180, i32 6, i32 0
  store i32 %181, ptr %5, align 4
  br label %187

182:                                              ; preds = %57, %50, %42, %37, %32
  %183 = load ptr, ptr %10, align 8
  call void @free(ptr noundef %183) #8
  %184 = load ptr, ptr %22, align 8
  call void @BN_free(ptr noundef %184)
  %185 = load ptr, ptr %23, align 8
  call void @BN_free(ptr noundef %185)
  %186 = load i32, ptr %24, align 4
  store i32 %186, ptr %5, align 4
  br label %187

187:                                              ; preds = %182, %170, %169, %159, %148, %84
  %188 = load i32, ptr %5, align 4
  ret i32 %188
}